; Function Attrs: mustprogress uwtable
define hidden noundef zeroext i1 @_Z31parse_smt2_commands_with_parserRPN4smt26parserER11cmd_contextRSibRK10params_refPKc(ptr nocapture noundef nonnull align 8 dereferenceable(8) %p, ptr noundef nonnull align 8 dereferenceable(872) %ctx, ptr noundef nonnull align 8 dereferenceable(16) %is, i1 noundef zeroext %interactive, ptr noundef nonnull align 8 dereferenceable(8) %ps, ptr noundef %filename) local_unnamed_addr #3 {
entry:
  %0 = load ptr, ptr %p, align 8
  %tobool.not = icmp eq ptr %0, null
  br i1 %tobool.not, label %if.else, label %if.then

if.then:                                          ; preds = %entry
  %m_scanner.i = getelementptr inbounds i8, ptr %0, i64 16
  tail call void @_ZN4smt27scanner11reset_inputERSib(ptr noundef nonnull align 8 dereferenceable(1408) %m_scanner.i, ptr noundef nonnull align 8 dereferenceable(16) %is, i1 noundef zeroext %interactive)
  %.pre = load ptr, ptr %p, align 8
  br label %if.end

if.else:                                          ; preds = %entry
  %call = tail call noalias noundef ptr @_ZN6memory8allocateEm(i64 noundef 2168)
  tail call void @_ZN4smt26parserC2ER11cmd_contextRSibRK10params_refPKc(ptr noundef nonnull align 8 dereferenceable(2168) %call, ptr noundef nonnull align 8 dereferenceable(872) %ctx, ptr noundef nonnull align 8 dereferenceable(16) %is, i1 noundef zeroext %interactive, ptr noundef nonnull align 8 dereferenceable(8) %ps, ptr noundef %filename)
  store ptr %call, ptr %p, align 8
  br label %if.end

if.end:                                           ; preds = %if.else, %if.then
  %1 = phi ptr [ %call, %if.else ], [ %.pre, %if.then ]
  %call3 = tail call noundef zeroext i1 @_ZN4smt26parserclEv(ptr noundef nonnull align 8 dereferenceable(2168) %1)
  ret i1 %call3
}